; ModuleID = 'bench/openexr/original/ImfImageDataWindow.ll'
source_filename = "bench/openexr/original/ImfImageDataWindow.ll"
target datalayout = "e-m:e-p270:32:32-p271:32:32-p272:64:64-i64:64-i128:128-f80:128-n8:16:32:64-S128"
target triple = "x86_64-pc-linux-gnu"

%"class.std::ios_base::Init" = type { i8 }
%"class.Imath_3_2::Box" = type { %"class.Imath_3_2::Vec2", %"class.Imath_3_2::Vec2" }
%"class.Imath_3_2::Vec2" = type { i32, i32 }

@_ZStL8__ioinit = internal global %"class.std::ios_base::Init" zeroinitializer, align 1
@__dso_handle = external hidden global i8
@.str = private unnamed_addr constant [37 x i8] c"Cannot crop multi-resolution images.\00", align 1
@_ZTIN7Iex_3_46ArgExcE = external constant ptr
@.str.1 = private unnamed_addr constant [30 x i8] c"Unsupported DataWindowSource.\00", align 1
@llvm.global_ctors = appending global [1 x { i32, ptr, ptr }] [{ i32, ptr, ptr } { i32 65535, ptr @_GLOBAL__sub_I_ImfImageDataWindow.cpp, ptr null }]

declare void @_ZNSt8ios_base4InitC1Ev(ptr noundef nonnull align 1 dereferenceable(1)) unnamed_addr #0

; Function Attrs: nounwind
declare void @_ZNSt8ios_base4InitD1Ev(ptr noundef nonnull align 1 dereferenceable(1)) unnamed_addr #1

; Function Attrs: nofree nounwind
declare i32 @__cxa_atexit(ptr, ptr, ptr) local_unnamed_addr #2

; Function Attrs: mustprogress uwtable
define void @_ZN7Imf_3_417dataWindowForFileERKNS_6HeaderERKNS_5ImageENS_16DataWindowSourceE(ptr dead_on_unwind noalias writable writeonly sret(%"class.Imath_3_2::Box") align 4 captures(none) %0, ptr noundef nonnull align 8 dereferenceable(49) %1, ptr noundef nonnull align 8 dereferenceable(104) %2, i32 noundef %3) local_unnamed_addr #3 personality ptr @__gxx_personality_v0 {
  switch i32 %3, label %48 [
    i32 0, label %5
    i32 1, label %17
  ]

5:                                                ; preds = %4
  %6 = tail call noundef nonnull align 4 dereferenceable(16) ptr @_ZNK7Imf_3_45Image10dataWindowEv(ptr noundef nonnull align 8 dereferenceable(104) %2)
  %7 = load i32, ptr %6, align 4, !tbaa !3
  store i32 %7, ptr %0, align 4, !tbaa !3
  %8 = getelementptr inbounds nuw i8, ptr %0, i64 4
  %9 = getelementptr inbounds nuw i8, ptr %6, i64 4
  %10 = load i32, ptr %9, align 4, !tbaa !8
  store i32 %10, ptr %8, align 4, !tbaa !8
  %11 = getelementptr inbounds nuw i8, ptr %0, i64 8
  %12 = getelementptr inbounds nuw i8, ptr %6, i64 8
  %13 = load i32, ptr %12, align 4, !tbaa !3
  store i32 %13, ptr %11, align 4, !tbaa !3
  %14 = getelementptr inbounds nuw i8, ptr %0, i64 12
  %15 = getelementptr inbounds nuw i8, ptr %6, i64 12
  %16 = load i32, ptr %15, align 4, !tbaa !8
  store i32 %16, ptr %14, align 4, !tbaa !8
  br label %53

17:                                               ; preds = %4
  %18 = tail call noundef i32 @_ZNK7Imf_3_45Image9levelModeEv(ptr noundef nonnull align 8 dereferenceable(104) %2)
  %.not = icmp eq i32 %18, 0
  br i1 %.not, label %24, label %19

19:                                               ; preds = %17
  %20 = tail call ptr @__cxa_allocate_exception(i64 72) #7
  invoke void @_ZN7Iex_3_46ArgExcC1EPKc(ptr noundef nonnull align 8 dereferenceable(72) %20, ptr noundef nonnull @.str)
          to label %21 unwind label %22

21:                                               ; preds = %19
  tail call void @__cxa_throw(ptr nonnull %20, ptr nonnull @_ZTIN7Iex_3_46ArgExcE, ptr nonnull @_ZN7Iex_3_46ArgExcD1Ev) #8
  unreachable

22:                                               ; preds = %19
  %23 = landingpad { ptr, i32 }
          cleanup
  br label %54

24:                                               ; preds = %17
  %25 = tail call noundef nonnull align 4 dereferenceable(16) ptr @_ZNK7Imf_3_46Header10dataWindowEv(ptr noundef nonnull align 8 dereferenceable(49) %1)
  %26 = tail call noundef nonnull align 4 dereferenceable(16) ptr @_ZNK7Imf_3_45Image10dataWindowEv(ptr noundef nonnull align 8 dereferenceable(104) %2)
  %27 = load i32, ptr %25, align 4, !tbaa !9
  %28 = load i32, ptr %26, align 4, !tbaa !9
  %29 = tail call i32 @llvm.smax.i32(i32 %27, i32 %28)
  %30 = getelementptr inbounds nuw i8, ptr %25, i64 4
  %31 = getelementptr inbounds nuw i8, ptr %26, i64 4
  %32 = load i32, ptr %30, align 4, !tbaa !9
  %33 = load i32, ptr %31, align 4, !tbaa !9
  %34 = tail call i32 @llvm.smax.i32(i32 %32, i32 %33)
  %35 = getelementptr inbounds nuw i8, ptr %25, i64 8
  %36 = getelementptr inbounds nuw i8, ptr %26, i64 8
  %37 = load i32, ptr %36, align 4, !tbaa !9
  %38 = load i32, ptr %35, align 4, !tbaa !9
  %39 = tail call i32 @llvm.smin.i32(i32 %37, i32 %38)
  %40 = getelementptr inbounds nuw i8, ptr %25, i64 12
  %41 = getelementptr inbounds nuw i8, ptr %26, i64 12
  %42 = load i32, ptr %41, align 4, !tbaa !9
  %43 = load i32, ptr %40, align 4, !tbaa !9
  %44 = tail call i32 @llvm.smin.i32(i32 %42, i32 %43)
  %45 = getelementptr inbounds nuw i8, ptr %0, i64 8
  store i32 %29, ptr %0, align 4, !tbaa !3
  %46 = getelementptr inbounds nuw i8, ptr %0, i64 4
  store i32 %34, ptr %46, align 4, !tbaa !8
  store i32 %39, ptr %45, align 4, !tbaa !3
  %47 = getelementptr inbounds nuw i8, ptr %0, i64 12
  store i32 %44, ptr %47, align 4, !tbaa !8
  br label %53

48:                                               ; preds = %4
  %49 = tail call ptr @__cxa_allocate_exception(i64 72) #7
  invoke void @_ZN7Iex_3_46ArgExcC1EPKc(ptr noundef nonnull align 8 dereferenceable(72) %49, ptr noundef nonnull @.str.1)
          to label %50 unwind label %51

50:                                               ; preds = %48
  tail call void @__cxa_throw(ptr nonnull %49, ptr nonnull @_ZTIN7Iex_3_46ArgExcE, ptr nonnull @_ZN7Iex_3_46ArgExcD1Ev) #8
  unreachable

51:                                               ; preds = %48
  %52 = landingpad { ptr, i32 }
          cleanup
  br label %54

53:                                               ; preds = %24, %5
  ret void

54:                                               ; preds = %51, %22
  %.sink = phi ptr [ %49, %51 ], [ %20, %22 ]
  %.pn = phi { ptr, i32 } [ %52, %51 ], [ %23, %22 ]
  tail call void @__cxa_free_exception(ptr nonnull %.sink) #7
  resume { ptr, i32 } %.pn
}

declare noundef nonnull align 4 dereferenceable(16) ptr @_ZNK7Imf_3_45Image10dataWindowEv(ptr noundef nonnull align 8 dereferenceable(104)) local_unnamed_addr #0

declare noundef i32 @_ZNK7Imf_3_45Image9levelModeEv(ptr noundef nonnull align 8 dereferenceable(104)) local_unnamed_addr #0

declare ptr @__cxa_allocate_exception(i64) local_unnamed_addr

declare void @_ZN7Iex_3_46ArgExcC1EPKc(ptr noundef nonnull align 8 dereferenceable(72), ptr noundef) unnamed_addr #0

declare i32 @__gxx_personality_v0(...)

declare void @__cxa_free_exception(ptr) local_unnamed_addr

; Function Attrs: nounwind
declare void @_ZN7Iex_3_46ArgExcD1Ev(ptr noundef nonnull align 8 dereferenceable(72)) unnamed_addr #1

; Function Attrs: cold noreturn
declare void @__cxa_throw(ptr, ptr, ptr) local_unnamed_addr #4

declare noundef nonnull align 4 dereferenceable(16) ptr @_ZNK7Imf_3_46Header10dataWindowEv(ptr noundef nonnull align 8 dereferenceable(49)) local_unnamed_addr #0

; Function Attrs: uwtable
define internal void @_GLOBAL__sub_I_ImfImageDataWindow.cpp() #5 section ".text.startup" {
  tail call void @_ZNSt8ios_base4InitC1Ev(ptr noundef nonnull align 1 dereferenceable(1) @_ZStL8__ioinit)
  %1 = tail call i32 @__cxa_atexit(ptr nonnull @_ZNSt8ios_base4InitD1Ev, ptr nonnull @_ZStL8__ioinit, ptr nonnull @__dso_handle) #7
  ret void
}

; Function Attrs: nocallback nofree nosync nounwind speculatable willreturn memory(none)
declare i32 @llvm.smax.i32(i32, i32) #6

; Function Attrs: nocallback nofree nosync nounwind speculatable willreturn memory(none)
declare i32 @llvm.smin.i32(i32, i32) #6


!llvm.module.flags = !{!0, !1, !2}

!0 = !{i32 1, !"wchar_size", i32 4}
!1 = !{i32 8, !"PIC Level", i32 2}
!2 = !{i32 7, !"uwtable", i32 2}
!3 = !{!4, !5, i64 0}
!4 = !{!"_ZTSN9Imath_3_24Vec2IiEE", !5, i64 0, !5, i64 4}
!5 = !{!"int", !6, i64 0}
!6 = !{!"omnipotent char", !7, i64 0}
!7 = !{!"Simple C++ TBAA"}
!8 = !{!4, !5, i64 4}
!9 = !{!5, !5, i64 0}
